((dp0
S'prior_alpha'
p1
(lp2
(lp3
cnumpy.core.multiarray
scalar
p4
(cnumpy
dtype
p5
(S'f8'
p6
I0
I1
tp7
Rp8
(I3
S'<'
p9
NNNI-1
I-1
I0
tp10
bS'\x03&\xc1\x9bS\x02\xec?'
p11
tp12
Rp13
ag4
(g8
S'\x82X\xab\xccb\xf0\xeb?'
p14
tp15
Rp16
ag4
(g8
S'gM\x1bo\rI\xed?'
p17
tp18
Rp19
ag4
(g8
S's.\xb8\x18ON\xed?'
p20
tp21
Rp22
ag4
(g8
S'\xfd\x89y3}X\xed?'
p23
tp24
Rp25
ag4
(g8
S'G\x02]a\xf6\xa2\xec?'
p26
tp27
Rp28
ag4
(g8
S'\xee\x1e\x82[\xb3L\xed?'
p29
tp30
Rp31
ag4
(g8
S'b\xab*\xab\xa7\x1d\xec?'
p32
tp33
Rp34
ag4
(g8
S'a\xe3\xd3e,\x9d\xed?'
p35
tp36
Rp37
ag4
(g8
S'\x0e.`\xfc\x87c\xed?'
p38
tp39
Rp40
aa(lp41
g13
ag16
ag19
ag22
ag25
ag28
ag31
ag34
ag37
ag40
ag4
(g8
S'\x03&\xc1\x9bS\x02\xec?'
p42
tp43
Rp44
ag4
(g8
S'\x82X\xab\xccb\xf0\xeb?'
p45
tp46
Rp47
ag4
(g8
S'\xc4\xb7Q\x8e\xdeb\xed?'
p48
tp49
Rp50
ag4
(g8
S'T\x91pv\xe5y\xec?'
p51
tp52
Rp53
ag4
(g8
S'\xed<\xad\xa0\x10a\xed?'
p54
tp55
Rp56
ag4
(g8
S'\x99\xb9T\xa5G\x99\xec?'
p57
tp58
Rp59
ag4
(g8
S'\xa0\xcb\xb1\xe1\xae`\xed?'
p60
tp61
Rp62
ag4
(g8
S'N\xc9G\xe9\xbf9\xec?'
p63
tp64
Rp65
ag4
(g8
S'<\xff\xff\x08\xbb\xad\xed?'
p66
tp67
Rp68
ag4
(g8
S'\xe5\x8f\xd1\x10\xa3\x9c\xec?'
p69
tp70
Rp71
aa(lp72
g13
ag16
ag19
ag22
ag25
ag28
ag31
ag34
ag37
ag40
ag44
ag47
ag50
ag53
ag56
ag59
ag62
ag65
ag68
ag71
ag4
(g8
S'\xcd\x1a\x02\xcdY\xf4\xeb?'
p73
tp74
Rp75
ag4
(g8
S'\x9do\xe7:\x07\xba\xeb?'
p76
tp77
Rp78
ag4
(g8
S'\r%\xdaS\x83o\xec?'
p79
tp80
Rp81
ag4
(g8
S'T\x91pv\xe5y\xec?'
p82
tp83
Rp84
ag4
(g8
S'\x9a\x1d\xf9+w\xa9\xec?'
p85
tp86
Rp87
ag4
(g8
S'P\xe7\x97\x9c\x17\x90\xec?'
p88
tp89
Rp90
ag4
(g8
S'\xca\x05tn\xf8\x86\xec?'
p91
tp92
Rp93
ag4
(g8
S'N\xc9G\xe9\xbf9\xec?'
p94
tp95
Rp96
ag4
(g8
S'~\x07\x87>\x18\xdd\xec?'
p97
tp98
Rp99
ag4
(g8
S'\xe5\x8f\xd1\x10\xa3\x9c\xec?'
p100
tp101
Rp102
aa(lp103
g13
ag16
ag19
ag22
ag25
ag28
ag31
ag34
ag37
ag40
ag44
ag47
ag50
ag53
ag56
ag59
ag62
ag65
ag68
ag71
ag75
ag78
ag81
ag84
ag87
ag90
ag93
ag96
ag99
ag102
ag4
(g8
S'\xcd\x1a\x02\xcdY\xf4\xeb?'
p104
tp105
Rp106
ag4
(g8
S'\x18V\xc37T\xbc\xeb?'
p107
tp108
Rp109
ag4
(g8
S"\x1ai'vwF\xec?"
p110
tp111
Rp112
ag4
(g8
S'\x02\x94-\x1axs\xec?'
p113
tp114
Rp115
ag4
(g8
S'?l\xdbu\xcd\x84\xec?'
p116
tp117
Rp118
ag4
(g8
S'P\xe7\x97\x9c\x17\x90\xec?'
p119
tp120
Rp121
ag4
(g8
S'L\x98B\x8d$\x92\xec?'
p122
tp123
Rp124
ag4
(g8
S'N\xc9G\xe9\xbf9\xec?'
p125
tp126
Rp127
ag4
(g8
S'~\x07\x87>\x18\xdd\xec?'
p128
tp129
Rp130
ag4
(g8
S'\xe5\x8f\xd1\x10\xa3\x9c\xec?'
p131
tp132
Rp133
aa(lp134
g13
ag16
ag19
ag22
ag25
ag28
ag31
ag34
ag37
ag40
ag44
ag47
ag50
ag53
ag56
ag59
ag62
ag65
ag68
ag71
ag75
ag78
ag81
ag84
ag87
ag90
ag93
ag96
ag99
ag102
ag106
ag109
ag112
ag115
ag118
ag121
ag124
ag127
ag130
ag133
ag4
(g8
S'}\x15\x1c\x9f\xd9\x19\xea?'
p135
tp136
Rp137
ag4
(g8
S'\xd4/h\x08\xde3\xea?'
p138
tp139
Rp140
ag4
(g8
S'\xd4\x14\xcb\x9c\xe9\xc2\xe9?'
p141
tp142
Rp143
ag4
(g8
S'\x9e\x87 \x82\x8du\xea?'
p144
tp145
Rp146
ag4
(g8
S'\xf2x\xd3I\x99U\xea?'
p147
tp148
Rp149
ag4
(g8
S'\x87\x81}d\x89]\xea?'
p150
tp151
Rp152
ag4
(g8
S'\xd6 \xa5-\x84J\xe9?'
p153
tp154
Rp155
ag4
(g8
S'H\xbe}Kd3\xea?'
p156
tp157
Rp158
ag4
(g8
S'+\xb4c\xfa\xed\xc3\xe9?'
p159
tp160
Rp161
ag4
(g8
S"'\xc0\xc9yWn\xea?"
p162
tp163
Rp164
aas(dp165
g1
(lp166
(lp167
I695
aI686
aI780
aI785
aI795
aI730
aI789
aI692
aI805
aI793
aa(lp168
I695
aI686
aI780
aI785
aI795
aI730
aI789
aI692
aI805
aI793
aI695
aI686
aI786
aI717
aI796
aI729
aI793
aI696
aI810
aI729
aa(lp169
I695
aI686
aI780
aI785
aI795
aI730
aI789
aI692
aI805
aI793
aI695
aI686
aI786
aI717
aI796
aI729
aI793
aI696
aI810
aI729
aI693
aI666
aI710
aI717
aI739
aI727
aI726
aI696
aI741
aI729
aa(lp170
I695
aI686
aI780
aI785
aI795
aI730
aI789
aI692
aI805
aI793
aI695
aI686
aI786
aI717
aI796
aI729
aI793
aI696
aI810
aI729
aI693
aI666
aI710
aI717
aI739
aI727
aI726
aI696
aI741
aI729
aI693
aI666
aI699
aI712
aI730
aI727
aI727
aI696
aI741
aI729
aa(lp171
I695
aI686
aI780
aI785
aI795
aI730
aI789
aI692
aI805
aI793
aI695
aI686
aI786
aI717
aI796
aI729
aI793
aI696
aI810
aI729
aI693
aI666
aI710
aI717
aI739
aI727
aI726
aI696
aI741
aI729
aI693
aI666
aI699
aI712
aI730
aI727
aI727
aI696
aI741
aI729
aI570
aI558
aI532
aI580
aI578
aI568
aI508
aI553
aI538
aI574
aastp172
.